target datalayout = "e-m:e-p270:32:32-p271:32:32-p272:64:64-i64:64-i128:128-f80:128-n8:16:32:64-S128"
target triple = "x86_64-pc-linux-gnu"

%struct.DynBuffer = type { i32, i32, i32, ptr, i32, [1 x i8] }

; Function Attrs: nounwind uwtable
define internal i32 @dyn_buf_write(ptr noundef %0, ptr noundef %1, i32 noundef %2) #0 {
  %4 = alloca i32, align 4
  %5 = alloca ptr, align 8
  %6 = alloca ptr, align 8
  %7 = alloca i32, align 4
  %8 = alloca ptr, align 8
  %9 = alloca i32, align 4
  %10 = alloca i32, align 4
  %11 = alloca i32, align 4
  %12 = alloca i32, align 4
  store ptr %0, ptr %5, align 8, !tbaa !13
  store ptr %1, ptr %6, align 8, !tbaa !9
  store i32 %2, ptr %7, align 4, !tbaa !11
  call void @llvm.lifetime.start.p0(i64 8, ptr %8) #12
  %13 = load ptr, ptr %5, align 8, !tbaa !13
  store ptr %13, ptr %8, align 8, !tbaa !99
  call void @llvm.lifetime.start.p0(i64 4, ptr %9) #12
  %14 = load ptr, ptr %8, align 8, !tbaa !99
  %15 = getelementptr inbounds nuw %struct.DynBuffer, ptr %14, i32 0, i32 0
  %16 = load i32, ptr %15, align 8, !tbaa !105
  %17 = load i32, ptr %7, align 4, !tbaa !11
  %18 = add i32 %16, %17
  store i32 %18, ptr %9, align 4, !tbaa !11
  %19 = load i32, ptr %9, align 4, !tbaa !11
  %20 = load ptr, ptr %8, align 8, !tbaa !99
  %21 = getelementptr inbounds nuw %struct.DynBuffer, ptr %20, i32 0, i32 0
  %22 = load i32, ptr %21, align 8, !tbaa !105
  %23 = icmp ult i32 %19, %22
  br i1 %23, label %27, label %24

24:                                               ; preds = %3
  %25 = load i32, ptr %9, align 4, !tbaa !11
  %26 = icmp ugt i32 %25, 2147483647
  br i1 %26, label %27, label %28

27:                                               ; preds = %24, %3
  store i32 -34, ptr %4, align 4
  store i32 1, ptr %10, align 4
  br label %114

28:                                               ; preds = %24
  %29 = load i32, ptr %9, align 4, !tbaa !11
  %30 = load ptr, ptr %8, align 8, !tbaa !99
  %31 = getelementptr inbounds nuw %struct.DynBuffer, ptr %30, i32 0, i32 2
  %32 = load i32, ptr %31, align 8, !tbaa !108
  %33 = icmp ugt i32 %29, %32
  br i1 %33, label %34, label %84

34:                                               ; preds = %28
  call void @llvm.lifetime.start.p0(i64 4, ptr %11) #12
  %35 = load ptr, ptr %8, align 8, !tbaa !99
  %36 = getelementptr inbounds nuw %struct.DynBuffer, ptr %35, i32 0, i32 2
  %37 = load i32, ptr %36, align 8, !tbaa !108
  %38 = icmp ne i32 %37, 0
  br i1 %38, label %39, label %43

39:                                               ; preds = %34
  %40 = load ptr, ptr %8, align 8, !tbaa !99
  %41 = getelementptr inbounds nuw %struct.DynBuffer, ptr %40, i32 0, i32 2
  %42 = load i32, ptr %41, align 8, !tbaa !108
  br label %45

43:                                               ; preds = %34
  %44 = load i32, ptr %9, align 4, !tbaa !11
  br label %45

45:                                               ; preds = %43, %39
  %46 = phi i32 [ %42, %39 ], [ %44, %43 ]
  store i32 %46, ptr %11, align 4, !tbaa !11
  call void @llvm.lifetime.start.p0(i64 4, ptr %12) #12
  br label %47

47:                                               ; preds = %51, %45
  %48 = load i32, ptr %9, align 4, !tbaa !11
  %49 = load i32, ptr %11, align 4, !tbaa !11
  %50 = icmp ugt i32 %48, %49
  br i1 %50, label %51, label %57

51:                                               ; preds = %47
  %52 = load i32, ptr %11, align 4, !tbaa !11
  %53 = udiv i32 %52, 2
  %54 = add i32 %53, 1
  %55 = load i32, ptr %11, align 4, !tbaa !11
  %56 = add i32 %55, %54
  store i32 %56, ptr %11, align 4, !tbaa !11
  br label %47, !llvm.loop !109

57:                                               ; preds = %47
  %58 = load i32, ptr %11, align 4, !tbaa !11
  %59 = icmp ugt i32 %58, 2147483647
  br i1 %59, label %60, label %61

60:                                               ; preds = %57
  br label %63

61:                                               ; preds = %57
  %62 = load i32, ptr %11, align 4, !tbaa !11
  br label %63

63:                                               ; preds = %61, %60
  %64 = phi i32 [ 2147483647, %60 ], [ %62, %61 ]
  store i32 %64, ptr %11, align 4, !tbaa !11
  %65 = load ptr, ptr %8, align 8, !tbaa !99
  %66 = getelementptr inbounds nuw %struct.DynBuffer, ptr %65, i32 0, i32 3
  %67 = load i32, ptr %11, align 4, !tbaa !11
  %68 = zext i32 %67 to i64
  %69 = call i32 @av_reallocp(ptr noundef %66, i64 noundef %68)
  store i32 %69, ptr %12, align 4, !tbaa !11
  %70 = icmp slt i32 %69, 0
  br i1 %70, label %71, label %77

71:                                               ; preds = %63
  %72 = load ptr, ptr %8, align 8, !tbaa !99
  %73 = getelementptr inbounds nuw %struct.DynBuffer, ptr %72, i32 0, i32 2
  store i32 0, ptr %73, align 8, !tbaa !108
  %74 = load ptr, ptr %8, align 8, !tbaa !99
  %75 = getelementptr inbounds nuw %struct.DynBuffer, ptr %74, i32 0, i32 1
  store i32 0, ptr %75, align 4, !tbaa !103
  %76 = load i32, ptr %12, align 4, !tbaa !11
  store i32 %76, ptr %4, align 4
  store i32 1, ptr %10, align 4
  br label %81

77:                                               ; preds = %63
  %78 = load i32, ptr %11, align 4, !tbaa !11
  %79 = load ptr, ptr %8, align 8, !tbaa !99
  %80 = getelementptr inbounds nuw %struct.DynBuffer, ptr %79, i32 0, i32 2
  store i32 %78, ptr %80, align 8, !tbaa !108
  store i32 0, ptr %10, align 4
  br label %81

81:                                               ; preds = %77, %71
  call void @llvm.lifetime.end.p0(i64 4, ptr %12) #12
  call void @llvm.lifetime.end.p0(i64 4, ptr %11) #12
  %82 = load i32, ptr %10, align 4
  switch i32 %82, label %114 [
    i32 0, label %83
  ]

83:                                               ; preds = %81
  br label %84

84:                                               ; preds = %83, %28
  %85 = load ptr, ptr %8, align 8, !tbaa !99
  %86 = getelementptr inbounds nuw %struct.DynBuffer, ptr %85, i32 0, i32 3
  %87 = load ptr, ptr %86, align 8, !tbaa !104
  %88 = load ptr, ptr %8, align 8, !tbaa !99
  %89 = getelementptr inbounds nuw %struct.DynBuffer, ptr %88, i32 0, i32 0
  %90 = load i32, ptr %89, align 8, !tbaa !105
  %91 = sext i32 %90 to i64
  %92 = getelementptr inbounds i8, ptr %87, i64 %91
  %93 = load ptr, ptr %6, align 8, !tbaa !9
  %94 = load i32, ptr %7, align 4, !tbaa !11
  %95 = sext i32 %94 to i64
  call void @llvm.memcpy.p0.p0.i64(ptr align 1 %92, ptr align 1 %93, i64 %95, i1 false)
  %96 = load i32, ptr %9, align 4, !tbaa !11
  %97 = load ptr, ptr %8, align 8, !tbaa !99
  %98 = getelementptr inbounds nuw %struct.DynBuffer, ptr %97, i32 0, i32 0
  store i32 %96, ptr %98, align 8, !tbaa !105
  %99 = load ptr, ptr %8, align 8, !tbaa !99
  %100 = getelementptr inbounds nuw %struct.DynBuffer, ptr %99, i32 0, i32 0
  %101 = load i32, ptr %100, align 8, !tbaa !105
  %102 = load ptr, ptr %8, align 8, !tbaa !99
  %103 = getelementptr inbounds nuw %struct.DynBuffer, ptr %102, i32 0, i32 1
  %104 = load i32, ptr %103, align 4, !tbaa !103
  %105 = icmp sgt i32 %101, %104
  br i1 %105, label %106, label %112

106:                                              ; preds = %84
  %107 = load ptr, ptr %8, align 8, !tbaa !99
  %108 = getelementptr inbounds nuw %struct.DynBuffer, ptr %107, i32 0, i32 0
  %109 = load i32, ptr %108, align 8, !tbaa !105
  %110 = load ptr, ptr %8, align 8, !tbaa !99
  %111 = getelementptr inbounds nuw %struct.DynBuffer, ptr %110, i32 0, i32 1
  store i32 %109, ptr %111, align 4, !tbaa !103
  br label %112

112:                                              ; preds = %106, %84
  %113 = load i32, ptr %7, align 4, !tbaa !11
  store i32 %113, ptr %4, align 4
  store i32 1, ptr %10, align 4
  br label %114

114:                                              ; preds = %112, %81, %27
  call void @llvm.lifetime.end.p0(i64 4, ptr %9) #12
  call void @llvm.lifetime.end.p0(i64 8, ptr %8) #12
  %115 = load i32, ptr %4, align 4
  ret i32 %115
}

; Function Attrs: alwaysinline nounwind willreturn memory(none) uwtable
define internal i32 @av_bswap32(i32 noundef %0) #9 {
  %2 = alloca i32, align 4
  store i32 %0, ptr %2, align 4, !tbaa !11
  %3 = load i32, ptr %2, align 4, !tbaa !11
  %4 = shl i32 %3, 8
  %5 = and i32 %4, 65280
  %6 = load i32, ptr %2, align 4, !tbaa !11
  %7 = lshr i32 %6, 8
  %8 = and i32 %7, 255
  %9 = or i32 %5, %8
  %10 = shl i32 %9, 16
  %11 = load i32, ptr %2, align 4, !tbaa !11
  %12 = lshr i32 %11, 16
  %13 = shl i32 %12, 8
  %14 = and i32 %13, 65280
  %15 = load i32, ptr %2, align 4, !tbaa !11
  %16 = lshr i32 %15, 16
  %17 = lshr i32 %16, 8
  %18 = and i32 %17, 255
  %19 = or i32 %14, %18
  %20 = or i32 %10, %19
  ret i32 %20
}

; Function Attrs: nounwind uwtable
define internal i32 @dyn_packet_buf_write(ptr noundef %0, ptr noundef %1, i32 noundef %2) #0 {
  %4 = alloca i32, align 4
  %5 = alloca ptr, align 8
  %6 = alloca ptr, align 8
  %7 = alloca i32, align 4
  %8 = alloca [4 x i8], align 1
  %9 = alloca i32, align 4
  %10 = alloca i32, align 4
  store ptr %0, ptr %5, align 8, !tbaa !13
  store ptr %1, ptr %6, align 8, !tbaa !9
  store i32 %2, ptr %7, align 4, !tbaa !11
  call void @llvm.lifetime.start.p0(i64 4, ptr %8) #12
  call void @llvm.lifetime.start.p0(i64 4, ptr %9) #12
  %11 = load i32, ptr %7, align 4, !tbaa !11
  %12 = call i32 @av_bswap32(i32 noundef %11) #14
  %13 = getelementptr inbounds [4 x i8], ptr %8, i64 0, i64 0
  store i32 %12, ptr %13, align 1, !tbaa !50
  %14 = load ptr, ptr %5, align 8, !tbaa !13
  %15 = getelementptr inbounds [4 x i8], ptr %8, i64 0, i64 0
  %16 = call i32 @dyn_buf_write(ptr noundef %14, ptr noundef %15, i32 noundef 4)
  store i32 %16, ptr %9, align 4, !tbaa !11
  %17 = load i32, ptr %9, align 4, !tbaa !11
  %18 = icmp slt i32 %17, 0
  br i1 %18, label %19, label %21

19:                                               ; preds = %3
  %20 = load i32, ptr %9, align 4, !tbaa !11
  store i32 %20, ptr %4, align 4
  store i32 1, ptr %10, align 4
  br label %26

21:                                               ; preds = %3
  %22 = load ptr, ptr %5, align 8, !tbaa !13
  %23 = load ptr, ptr %6, align 8, !tbaa !9
  %24 = load i32, ptr %7, align 4, !tbaa !11
  %25 = call i32 @dyn_buf_write(ptr noundef %22, ptr noundef %23, i32 noundef %24)
  store i32 %25, ptr %4, align 4
  store i32 1, ptr %10, align 4
  br label %26

26:                                               ; preds = %21, %19
  call void @llvm.lifetime.end.p0(i64 4, ptr %9) #12
  call void @llvm.lifetime.end.p0(i64 4, ptr %8) #12
  %27 = load i32, ptr %4, align 4
  ret i32 %27
}