; Function Attrs: nounwind uwtable
define internal i32 @dyn_packet_buf_write(ptr noundef %0, ptr noundef readonly captures(none) %1, i32 noundef %2) #3 {
  %4 = tail call i32 @llvm.bswap.i32(i32 %2)
  %5 = load i32, ptr %0, align 8, !tbaa !83
  %6 = add i32 %5, 4
  %or.cond.i = icmp ugt i32 %5, 2147483643
  br i1 %or.cond.i, label %dyn_buf_write.exit18, label %7

7:                                                ; preds = %3
  %8 = getelementptr inbounds nuw i8, ptr %0, i64 8
  %9 = load i32, ptr %8, align 8, !tbaa !84
  %10 = icmp ugt i32 %6, %9
  br i1 %10, label %11, label %24

11:                                               ; preds = %7
  %.not.i = icmp eq i32 %9, 0
  %..i = select i1 %.not.i, i32 %6, i32 %9
  %12 = icmp samesign ugt i32 %6, %..i
  br i1 %12, label %.lr.ph.i, label %._crit_edge.i

.lr.ph.i:                                         ; preds = %11, %.lr.ph.i
  %.03741.i = phi i32 [ %15, %.lr.ph.i ], [ %..i, %11 ]
  %13 = lshr i32 %.03741.i, 1
  %14 = add nuw nsw i32 %.03741.i, 1
  %15 = add nuw i32 %14, %13
  %16 = icmp ugt i32 %6, %15
  br i1 %16, label %.lr.ph.i, label %._crit_edge.i, !llvm.loop !85

._crit_edge.i:                                    ; preds = %.lr.ph.i, %11
  %.037.lcssa.i = phi i32 [ %..i, %11 ], [ %15, %.lr.ph.i ]
  %17 = tail call i32 @llvm.umin.i32(i32 %.037.lcssa.i, i32 2147483647)
  %18 = getelementptr inbounds nuw i8, ptr %0, i64 16
  %19 = zext nneg i32 %17 to i64
  %20 = tail call i32 @av_reallocp(ptr noundef nonnull %18, i64 noundef %19) #14
  %21 = icmp sgt i32 %20, -1
  br i1 %21, label %.thread.i, label %22

.thread.i:                                        ; preds = %._crit_edge.i
  store i32 %17, ptr %8, align 8, !tbaa !84
  %.pre.i = load i32, ptr %0, align 8, !tbaa !83
  br label %24

22:                                               ; preds = %._crit_edge.i
  store i32 0, ptr %8, align 8, !tbaa !84
  %23 = getelementptr inbounds nuw i8, ptr %0, i64 4
  store i32 0, ptr %23, align 4, !tbaa !81
  br label %dyn_buf_write.exit18

24:                                               ; preds = %.thread.i, %7
  %25 = phi i32 [ %.pre.i, %.thread.i ], [ %5, %7 ]
  %26 = getelementptr inbounds nuw i8, ptr %0, i64 16
  %27 = load ptr, ptr %26, align 8, !tbaa !82
  %28 = sext i32 %25 to i64
  %29 = getelementptr inbounds i8, ptr %27, i64 %28
  store i32 %4, ptr %29, align 1
  store i32 %6, ptr %0, align 8, !tbaa !83
  %30 = getelementptr inbounds nuw i8, ptr %0, i64 4
  %31 = load i32, ptr %30, align 4, !tbaa !81
  %32 = icmp sgt i32 %6, %31
  br i1 %32, label %33, label %dyn_buf_write.exit

33:                                               ; preds = %24
  store i32 %6, ptr %30, align 4, !tbaa !81
  br label %dyn_buf_write.exit

dyn_buf_write.exit:                               ; preds = %33, %24
  %34 = add i32 %6, %2
  %35 = icmp ult i32 %34, %6
  %36 = icmp slt i32 %34, 0
  %or.cond.i8 = or i1 %35, %36
  br i1 %or.cond.i8, label %dyn_buf_write.exit18, label %37

37:                                               ; preds = %dyn_buf_write.exit
  %38 = load i32, ptr %8, align 8, !tbaa !84
  %39 = icmp ugt i32 %34, %38
  br i1 %39, label %40, label %51

40:                                               ; preds = %37
  %.not.i10 = icmp eq i32 %38, 0
  %..i11 = select i1 %.not.i10, i32 %34, i32 %38
  %41 = icmp samesign ugt i32 %34, %..i11
  br i1 %41, label %.lr.ph.i16, label %._crit_edge.i12

.lr.ph.i16:                                       ; preds = %40, %.lr.ph.i16
  %.03741.i17 = phi i32 [ %44, %.lr.ph.i16 ], [ %..i11, %40 ]
  %42 = lshr i32 %.03741.i17, 1
  %43 = add nuw nsw i32 %.03741.i17, 1
  %44 = add nuw i32 %43, %42
  %45 = icmp ugt i32 %34, %44
  br i1 %45, label %.lr.ph.i16, label %._crit_edge.i12, !llvm.loop !85

._crit_edge.i12:                                  ; preds = %.lr.ph.i16, %40
  %.037.lcssa.i13 = phi i32 [ %..i11, %40 ], [ %44, %.lr.ph.i16 ]
  %46 = tail call i32 @llvm.umin.i32(i32 %.037.lcssa.i13, i32 2147483647)
  %47 = zext nneg i32 %46 to i64
  %48 = tail call i32 @av_reallocp(ptr noundef nonnull %26, i64 noundef %47) #14
  %49 = icmp sgt i32 %48, -1
  br i1 %49, label %.thread.i14, label %50

.thread.i14:                                      ; preds = %._crit_edge.i12
  store i32 %46, ptr %8, align 8, !tbaa !84
  %.pre.i15 = load i32, ptr %0, align 8, !tbaa !83
  br label %51

50:                                               ; preds = %._crit_edge.i12
  store i32 0, ptr %8, align 8, !tbaa !84
  store i32 0, ptr %30, align 4, !tbaa !81
  br label %dyn_buf_write.exit18

51:                                               ; preds = %.thread.i14, %37
  %52 = phi i32 [ %.pre.i15, %.thread.i14 ], [ %6, %37 ]
  %53 = load ptr, ptr %26, align 8, !tbaa !82
  %54 = sext i32 %52 to i64
  %55 = getelementptr inbounds i8, ptr %53, i64 %54
  %56 = sext i32 %2 to i64
  tail call void @llvm.memcpy.p0.p0.i64(ptr align 1 %55, ptr readonly align 1 %1, i64 %56, i1 false)
  store i32 %34, ptr %0, align 8, !tbaa !83
  %57 = load i32, ptr %30, align 4, !tbaa !81
  %58 = icmp sgt i32 %34, %57
  br i1 %58, label %59, label %dyn_buf_write.exit18

59:                                               ; preds = %51
  store i32 %34, ptr %30, align 4, !tbaa !81
  br label %dyn_buf_write.exit18

dyn_buf_write.exit18:                             ; preds = %3, %22, %59, %51, %50, %dyn_buf_write.exit
  %.0 = phi i32 [ %48, %50 ], [ -34, %dyn_buf_write.exit ], [ %2, %59 ], [ %2, %51 ], [ -34, %3 ], [ %20, %22 ]
  ret i32 %.0
}